; ModuleID = 'source-C-CXX/0/1664.cpp'
source_filename = "source-C-CXX/0/1664.cpp"
target datalayout = "e-m:e-p270:32:32-p271:32:32-p272:64:64-i64:64-f80:128-n8:16:32:64-S128"
target triple = "x86_64-pc-linux-gnu"

%"class.std::ios_base::Init" = type { i8 }
%"class.std::basic_istream" = type { i32 (...)**, i64, %"class.std::basic_ios" }
%"class.std::basic_ios" = type { %"class.std::ios_base", %"class.std::basic_ostream"*, i8, i8, %"class.std::basic_streambuf"*, %"class.std::ctype"*, %"class.std::num_put"*, %"class.std::num_get"* }
%"class.std::ios_base" = type { i32 (...)**, i64, i64, i32, i32, i32, %"struct.std::ios_base::_Callback_list"*, %"struct.std::ios_base::_Words", [8 x %"struct.std::ios_base::_Words"], i32, %"struct.std::ios_base::_Words"*, %"class.std::locale" }
%"struct.std::ios_base::_Callback_list" = type { %"struct.std::ios_base::_Callback_list"*, void (i32, %"class.std::ios_base"*, i32)*, i32, i32 }
%"struct.std::ios_base::_Words" = type { i8*, i64 }
%"class.std::locale" = type { %"class.std::locale::_Impl"* }
%"class.std::locale::_Impl" = type { i32, %"class.std::locale::facet"**, i64, %"class.std::locale::facet"**, i8** }
%"class.std::locale::facet" = type <{ i32 (...)**, i32, [4 x i8] }>
%"class.std::basic_ostream" = type { i32 (...)**, %"class.std::basic_ios" }
%"class.std::basic_streambuf" = type { i32 (...)**, i8*, i8*, i8*, i8*, i8*, i8*, %"class.std::locale" }
%"class.std::ctype" = type <{ %"class.std::locale::facet.base", [4 x i8], %struct.__locale_struct*, i8, [7 x i8], i32*, i32*, i16*, i8, [256 x i8], [256 x i8], i8, [6 x i8] }>
%"class.std::locale::facet.base" = type <{ i32 (...)**, i32 }>
%struct.__locale_struct = type { [13 x %struct.__locale_data*], i16*, i32*, i32*, [13 x i8*] }
%struct.__locale_data = type opaque
%"class.std::num_put" = type { %"class.std::locale::facet.base", [4 x i8] }
%"class.std::num_get" = type { %"class.std::locale::facet.base", [4 x i8] }

@_ZStL8__ioinit = internal global %"class.std::ios_base::Init" zeroinitializer, align 1
@__dso_handle = external hidden global i8
@result = dso_local local_unnamed_addr global [9999 x i32] zeroinitializer, align 16
@j = dso_local local_unnamed_addr global i32 0, align 4
@_ZSt3cin = external global %"class.std::basic_istream", align 8
@_ZSt4cout = external global %"class.std::basic_ostream", align 8
@llvm.global_ctors = appending global [1 x { i32, void ()*, i8* }] [{ i32, void ()*, i8* } { i32 65535, void ()* @_GLOBAL__sub_I_1664.cpp, i8* null }]

declare void @_ZNSt8ios_base4InitC1Ev(%"class.std::ios_base::Init"* nonnull align 1 dereferenceable(1)) unnamed_addr #0

; Function Attrs: nounwind
declare void @_ZNSt8ios_base4InitD1Ev(%"class.std::ios_base::Init"* nonnull align 1 dereferenceable(1)) unnamed_addr #1

; Function Attrs: nofree nounwind
declare i32 @__cxa_atexit(void (i8*)*, i8*, i8*) local_unnamed_addr #2

; Function Attrs: mustprogress norecurse sspstrong uwtable
define dso_local i32 @main() local_unnamed_addr #3 {
  %1 = alloca i32, align 4
  %2 = alloca i32, align 4
  %3 = bitcast i32* %1 to i8*
  call void @llvm.lifetime.start.p0i8(i64 4, i8* nonnull %3) #10
  %4 = call nonnull align 8 dereferenceable(16) %"class.std::basic_istream"* @_ZNSirsERi(%"class.std::basic_istream"* nonnull align 8 dereferenceable(16) @_ZSt3cin, i32* nonnull align 4 dereferenceable(4) %1)
  %5 = bitcast i32* %2 to i8*
  %6 = load i32, i32* %1, align 4, !tbaa !5
  %7 = icmp slt i32 %6, 1
  br i1 %7, label %94, label %8

8:                                                ; preds = %0, %44
  %9 = phi i32 [ %48, %44 ], [ 1, %0 ]
  call void @llvm.lifetime.start.p0i8(i64 4, i8* nonnull %5) #10
  %10 = call nonnull align 8 dereferenceable(16) %"class.std::basic_istream"* @_ZNSirsERi(%"class.std::basic_istream"* nonnull align 8 dereferenceable(16) @_ZSt3cin, i32* nonnull align 4 dereferenceable(4) %2)
  %11 = load i32, i32* %2, align 4, !tbaa !5
  call void @_Z6factorii(i32 2, i32 %11)
  br label %12

12:                                               ; preds = %95, %8
  %13 = phi i64 [ 0, %8 ], [ %108, %95 ]
  %14 = phi <4 x i32> [ zeroinitializer, %8 ], [ %106, %95 ]
  %15 = phi <4 x i32> [ zeroinitializer, %8 ], [ %107, %95 ]
  %16 = getelementptr inbounds [9999 x i32], [9999 x i32]* @result, i64 0, i64 %13
  %17 = bitcast i32* %16 to <4 x i32>*
  %18 = load <4 x i32>, <4 x i32>* %17, align 16, !tbaa !5
  %19 = getelementptr inbounds i32, i32* %16, i64 4
  %20 = bitcast i32* %19 to <4 x i32>*
  %21 = load <4 x i32>, <4 x i32>* %20, align 16, !tbaa !5
  %22 = icmp ne <4 x i32> %18, zeroinitializer
  %23 = icmp ne <4 x i32> %21, zeroinitializer
  %24 = zext <4 x i1> %22 to <4 x i32>
  %25 = zext <4 x i1> %23 to <4 x i32>
  %26 = add <4 x i32> %14, %24
  %27 = add <4 x i32> %15, %25
  %28 = or i64 %13, 8
  %29 = icmp eq i64 %28, 9992
  br i1 %29, label %51, label %95, !llvm.loop !9

30:                                               ; preds = %51
  call void @_ZSt16__throw_bad_castv() #11
  unreachable

31:                                               ; preds = %51
  %32 = getelementptr inbounds %"class.std::ctype", %"class.std::ctype"* %92, i64 0, i32 8
  %33 = load i8, i8* %32, align 8, !tbaa !12
  %34 = icmp eq i8 %33, 0
  br i1 %34, label %38, label %35

35:                                               ; preds = %31
  %36 = getelementptr inbounds %"class.std::ctype", %"class.std::ctype"* %92, i64 0, i32 9, i64 10
  %37 = load i8, i8* %36, align 1, !tbaa !16
  br label %44

38:                                               ; preds = %31
  call void @_ZNKSt5ctypeIcE13_M_widen_initEv(%"class.std::ctype"* nonnull align 8 dereferenceable(570) %92)
  %39 = bitcast %"class.std::ctype"* %92 to i8 (%"class.std::ctype"*, i8)***
  %40 = load i8 (%"class.std::ctype"*, i8)**, i8 (%"class.std::ctype"*, i8)*** %39, align 8, !tbaa !17
  %41 = getelementptr inbounds i8 (%"class.std::ctype"*, i8)*, i8 (%"class.std::ctype"*, i8)** %40, i64 6
  %42 = load i8 (%"class.std::ctype"*, i8)*, i8 (%"class.std::ctype"*, i8)** %41, align 8
  %43 = call signext i8 %42(%"class.std::ctype"* nonnull align 8 dereferenceable(570) %92, i8 signext 10)
  br label %44

44:                                               ; preds = %35, %38
  %45 = phi i8 [ %37, %35 ], [ %43, %38 ]
  %46 = call nonnull align 8 dereferenceable(8) %"class.std::basic_ostream"* @_ZNSo3putEc(%"class.std::basic_ostream"* nonnull align 8 dereferenceable(8) %82, i8 signext %45)
  %47 = call nonnull align 8 dereferenceable(8) %"class.std::basic_ostream"* @_ZNSo5flushEv(%"class.std::basic_ostream"* nonnull align 8 dereferenceable(8) %46)
  call void @llvm.memset.p0i8.i64(i8* noundef nonnull align 16 dereferenceable(39996) bitcast ([9999 x i32]* @result to i8*), i8 0, i64 39996, i1 false)
  %48 = add nuw nsw i32 %9, 1
  call void @llvm.lifetime.end.p0i8(i64 4, i8* nonnull %5) #10
  %49 = load i32, i32* %1, align 4, !tbaa !5
  %50 = icmp slt i32 %9, %49
  br i1 %50, label %8, label %94, !llvm.loop !19

51:                                               ; preds = %12
  %52 = add <4 x i32> %27, %26
  %53 = call i32 @llvm.vector.reduce.add.v4i32(<4 x i32> %52)
  %54 = load i32, i32* getelementptr inbounds ([9999 x i32], [9999 x i32]* @result, i64 0, i64 9992), align 16, !tbaa !5
  %55 = icmp ne i32 %54, 0
  %56 = zext i1 %55 to i32
  %57 = add nuw nsw i32 %53, %56
  %58 = load i32, i32* getelementptr inbounds ([9999 x i32], [9999 x i32]* @result, i64 0, i64 9993), align 4, !tbaa !5
  %59 = icmp ne i32 %58, 0
  %60 = zext i1 %59 to i32
  %61 = add nuw nsw i32 %57, %60
  %62 = load i32, i32* getelementptr inbounds ([9999 x i32], [9999 x i32]* @result, i64 0, i64 9994), align 8, !tbaa !5
  %63 = icmp ne i32 %62, 0
  %64 = zext i1 %63 to i32
  %65 = add nuw nsw i32 %61, %64
  %66 = load i32, i32* getelementptr inbounds ([9999 x i32], [9999 x i32]* @result, i64 0, i64 9995), align 4, !tbaa !5
  %67 = icmp ne i32 %66, 0
  %68 = zext i1 %67 to i32
  %69 = add nuw nsw i32 %65, %68
  %70 = load i32, i32* getelementptr inbounds ([9999 x i32], [9999 x i32]* @result, i64 0, i64 9996), align 16, !tbaa !5
  %71 = icmp ne i32 %70, 0
  %72 = zext i1 %71 to i32
  %73 = add nuw nsw i32 %69, %72
  %74 = load i32, i32* getelementptr inbounds ([9999 x i32], [9999 x i32]* @result, i64 0, i64 9997), align 4, !tbaa !5
  %75 = icmp ne i32 %74, 0
  %76 = zext i1 %75 to i32
  %77 = add nuw nsw i32 %73, %76
  %78 = load i32, i32* getelementptr inbounds ([9999 x i32], [9999 x i32]* @result, i64 0, i64 9998), align 8, !tbaa !5
  %79 = icmp ne i32 %78, 0
  %80 = zext i1 %79 to i32
  %81 = add nuw nsw i32 %77, %80
  %82 = call nonnull align 8 dereferenceable(8) %"class.std::basic_ostream"* @_ZNSolsEi(%"class.std::basic_ostream"* nonnull align 8 dereferenceable(8) @_ZSt4cout, i32 %81)
  %83 = bitcast %"class.std::basic_ostream"* %82 to i8**
  %84 = load i8*, i8** %83, align 8, !tbaa !17
  %85 = getelementptr i8, i8* %84, i64 -24
  %86 = bitcast i8* %85 to i64*
  %87 = load i64, i64* %86, align 8
  %88 = bitcast %"class.std::basic_ostream"* %82 to i8*
  %89 = add nsw i64 %87, 240
  %90 = getelementptr inbounds i8, i8* %88, i64 %89
  %91 = bitcast i8* %90 to %"class.std::ctype"**
  %92 = load %"class.std::ctype"*, %"class.std::ctype"** %91, align 8, !tbaa !20
  %93 = icmp eq %"class.std::ctype"* %92, null
  br i1 %93, label %30, label %31

94:                                               ; preds = %44, %0
  call void @llvm.lifetime.end.p0i8(i64 4, i8* nonnull %3) #10
  ret i32 0

95:                                               ; preds = %12
  %96 = getelementptr inbounds [9999 x i32], [9999 x i32]* @result, i64 0, i64 %28
  %97 = bitcast i32* %96 to <4 x i32>*
  %98 = load <4 x i32>, <4 x i32>* %97, align 16, !tbaa !5
  %99 = getelementptr inbounds i32, i32* %96, i64 4
  %100 = bitcast i32* %99 to <4 x i32>*
  %101 = load <4 x i32>, <4 x i32>* %100, align 16, !tbaa !5
  %102 = icmp ne <4 x i32> %98, zeroinitializer
  %103 = icmp ne <4 x i32> %101, zeroinitializer
  %104 = zext <4 x i1> %102 to <4 x i32>
  %105 = zext <4 x i1> %103 to <4 x i32>
  %106 = add <4 x i32> %26, %104
  %107 = add <4 x i32> %27, %105
  %108 = add nuw nsw i64 %13, 16
  br label %12
}

; Function Attrs: argmemonly mustprogress nofree nosync nounwind willreturn
declare void @llvm.lifetime.start.p0i8(i64 immarg, i8* nocapture) #4

declare nonnull align 8 dereferenceable(16) %"class.std::basic_istream"* @_ZNSirsERi(%"class.std::basic_istream"* nonnull align 8 dereferenceable(16), i32* nonnull align 4 dereferenceable(4)) local_unnamed_addr #0

; Function Attrs: mustprogress nofree nosync nounwind sspstrong uwtable
define dso_local void @_Z6factorii(i32 %0, i32 %1) local_unnamed_addr #5 {
  %3 = icmp eq i32 %1, 1
  br i1 %3, label %4, label %9

4:                                                ; preds = %2
  %5 = load i32, i32* @j, align 4, !tbaa !5
  %6 = sext i32 %5 to i64
  %7 = getelementptr inbounds [9999 x i32], [9999 x i32]* @result, i64 0, i64 %6
  store i32 1, i32* %7, align 4, !tbaa !5
  %8 = add nsw i32 %5, 1
  store i32 %8, i32* @j, align 4, !tbaa !5
  br label %9

9:                                                ; preds = %4, %2
  %10 = icmp sgt i32 %0, %1
  br i1 %10, label %11, label %12

11:                                               ; preds = %18, %9
  ret void

12:                                               ; preds = %9, %18
  %13 = phi i32 [ %19, %18 ], [ %0, %9 ]
  %14 = srem i32 %1, %13
  %15 = sdiv i32 %1, %13
  %16 = icmp eq i32 %14, 0
  br i1 %16, label %17, label %18

17:                                               ; preds = %12
  tail call void @_Z6factorii(i32 %13, i32 %15)
  br label %18

18:                                               ; preds = %12, %17
  %19 = add i32 %13, 1
  %20 = icmp eq i32 %13, %1
  br i1 %20, label %11, label %12, !llvm.loop !22
}

; Function Attrs: argmemonly mustprogress nofree nosync nounwind willreturn
declare void @llvm.lifetime.end.p0i8(i64 immarg, i8* nocapture) #4

declare nonnull align 8 dereferenceable(8) %"class.std::basic_ostream"* @_ZNSolsEi(%"class.std::basic_ostream"* nonnull align 8 dereferenceable(8), i32) local_unnamed_addr #0

declare nonnull align 8 dereferenceable(8) %"class.std::basic_ostream"* @_ZNSo3putEc(%"class.std::basic_ostream"* nonnull align 8 dereferenceable(8), i8 signext) local_unnamed_addr #0

declare nonnull align 8 dereferenceable(8) %"class.std::basic_ostream"* @_ZNSo5flushEv(%"class.std::basic_ostream"* nonnull align 8 dereferenceable(8)) local_unnamed_addr #0

; Function Attrs: noreturn
declare void @_ZSt16__throw_bad_castv() local_unnamed_addr #6

declare void @_ZNKSt5ctypeIcE13_M_widen_initEv(%"class.std::ctype"* nonnull align 8 dereferenceable(570)) local_unnamed_addr #0

; Function Attrs: sspstrong uwtable
define internal void @_GLOBAL__sub_I_1664.cpp() #7 section ".text.startup" {
  tail call void @_ZNSt8ios_base4InitC1Ev(%"class.std::ios_base::Init"* nonnull align 1 dereferenceable(1) @_ZStL8__ioinit)
  %1 = tail call i32 @__cxa_atexit(void (i8*)* bitcast (void (%"class.std::ios_base::Init"*)* @_ZNSt8ios_base4InitD1Ev to void (i8*)*), i8* getelementptr inbounds (%"class.std::ios_base::Init", %"class.std::ios_base::Init"* @_ZStL8__ioinit, i64 0, i32 0), i8* nonnull @__dso_handle) #10
  ret void
}

; Function Attrs: argmemonly nofree nounwind willreturn writeonly
declare void @llvm.memset.p0i8.i64(i8* nocapture writeonly, i8, i64, i1 immarg) #8

; Function Attrs: nofree nosync nounwind readnone willreturn
declare i32 @llvm.vector.reduce.add.v4i32(<4 x i32>) #9


!llvm.module.flags = !{!0, !1, !2, !3}
!llvm.ident = !{!4}

!0 = !{i32 1, !"wchar_size", i32 4}
!1 = !{i32 7, !"PIC Level", i32 2}
!2 = !{i32 7, !"PIE Level", i32 2}
!3 = !{i32 7, !"uwtable", i32 1}
!4 = !{!"clang version 13.0.0"}
!5 = !{!6, !6, i64 0}
!6 = !{!"int", !7, i64 0}
!7 = !{!"omnipotent char", !8, i64 0}
!8 = !{!"Simple C++ TBAA"}
!9 = distinct !{!9, !10, !11}
!10 = !{!"llvm.loop.mustprogress"}
!11 = !{!"llvm.loop.isvectorized", i32 1}
!12 = !{!13, !7, i64 56}
!13 = !{!"_ZTSSt5ctypeIcE", !14, i64 16, !15, i64 24, !14, i64 32, !14, i64 40, !14, i64 48, !7, i64 56, !7, i64 57, !7, i64 313, !7, i64 569}
!14 = !{!"any pointer", !7, i64 0}
!15 = !{!"bool", !7, i64 0}
!16 = !{!7, !7, i64 0}
!17 = !{!18, !18, i64 0}
!18 = !{!"vtable pointer", !8, i64 0}
!19 = distinct !{!19, !10}
!20 = !{!21, !14, i64 240}
!21 = !{!"_ZTSSt9basic_iosIcSt11char_traitsIcEE", !14, i64 216, !7, i64 224, !15, i64 225, !14, i64 232, !14, i64 240, !14, i64 248, !14, i64 256}
!22 = distinct !{!22, !10}
